; ModuleID = 'source-C-CXX/60/1521.c'
source_filename = "source-C-CXX/60/1521.c"
target datalayout = "e-m:e-p270:32:32-p271:32:32-p272:64:64-i64:64-f80:128-n8:16:32:64-S128"
target triple = "x86_64-pc-linux-gnu"

@.str = private unnamed_addr constant [3 x i8] c"%d\00", align 1
@.str.1 = private unnamed_addr constant [4 x i8] c"%d\0A\00", align 1

; Function Attrs: nofree norecurse nosync nounwind readnone sspstrong uwtable
define dso_local i32 @F(i32 %0) local_unnamed_addr #0 {
  %2 = add i32 %0, -1
  %3 = icmp ult i32 %2, 2
  br i1 %3, label %39, label %4

4:                                                ; preds = %1
  %5 = icmp slt i32 %0, 3
  br i1 %5, label %39, label %6

6:                                                ; preds = %4
  %7 = add i32 %0, -2
  %8 = add i32 %0, -3
  %9 = and i32 %7, 7
  %10 = icmp ult i32 %8, 7
  br i1 %10, label %27, label %11

11:                                               ; preds = %6
  %12 = and i32 %7, -8
  br label %13

13:                                               ; preds = %13, %11
  %14 = phi i32 [ 1, %11 ], [ %24, %13 ]
  %15 = phi i32 [ 1, %11 ], [ %23, %13 ]
  %16 = phi i32 [ %12, %11 ], [ %25, %13 ]
  %17 = add nsw i32 %14, %15
  %18 = add nsw i32 %17, %14
  %19 = add nsw i32 %18, %17
  %20 = add nsw i32 %19, %18
  %21 = add nsw i32 %20, %19
  %22 = add nsw i32 %21, %20
  %23 = add nsw i32 %22, %21
  %24 = add nsw i32 %23, %22
  %25 = add i32 %16, -8
  %26 = icmp eq i32 %25, 0
  br i1 %26, label %27, label %13, !llvm.loop !5

27:                                               ; preds = %13, %6
  %28 = phi i32 [ undef, %6 ], [ %24, %13 ]
  %29 = phi i32 [ 1, %6 ], [ %24, %13 ]
  %30 = phi i32 [ 1, %6 ], [ %23, %13 ]
  %31 = icmp eq i32 %9, 0
  br i1 %31, label %39, label %32

32:                                               ; preds = %27, %32
  %33 = phi i32 [ %36, %32 ], [ %29, %27 ]
  %34 = phi i32 [ %33, %32 ], [ %30, %27 ]
  %35 = phi i32 [ %37, %32 ], [ %9, %27 ]
  %36 = add nsw i32 %33, %34
  %37 = add i32 %35, -1
  %38 = icmp eq i32 %37, 0
  br i1 %38, label %39, label %32, !llvm.loop !7

39:                                               ; preds = %27, %32, %4, %1
  %40 = phi i32 [ 1, %1 ], [ undef, %4 ], [ %28, %27 ], [ %36, %32 ]
  ret i32 %40
}

; Function Attrs: argmemonly mustprogress nofree nosync nounwind willreturn
declare void @llvm.lifetime.start.p0i8(i64 immarg, i8* nocapture) #1

; Function Attrs: argmemonly mustprogress nofree nosync nounwind willreturn
declare void @llvm.lifetime.end.p0i8(i64 immarg, i8* nocapture) #1

; Function Attrs: nofree nounwind sspstrong uwtable
define dso_local i32 @main() local_unnamed_addr #2 {
  %1 = alloca [10000 x i32], align 16
  %2 = alloca i32, align 4
  %3 = bitcast [10000 x i32]* %1 to i8*
  call void @llvm.lifetime.start.p0i8(i64 40000, i8* nonnull %3) #4
  %4 = bitcast i32* %2 to i8*
  call void @llvm.lifetime.start.p0i8(i64 4, i8* nonnull %4) #4
  %5 = call i32 (i8*, ...) @__isoc99_scanf(i8* getelementptr inbounds ([3 x i8], [3 x i8]* @.str, i64 0, i64 0), i32* nonnull %2)
  %6 = load i32, i32* %2, align 4, !tbaa !9
  %7 = icmp slt i32 %6, 1
  br i1 %7, label %66, label %10

8:                                                ; preds = %10
  %9 = icmp slt i32 %15, 1
  br i1 %9, label %66, label %18

10:                                               ; preds = %0, %10
  %11 = phi i64 [ %14, %10 ], [ 1, %0 ]
  %12 = getelementptr inbounds [10000 x i32], [10000 x i32]* %1, i64 0, i64 %11
  %13 = call i32 (i8*, ...) @__isoc99_scanf(i8* getelementptr inbounds ([3 x i8], [3 x i8]* @.str, i64 0, i64 0), i32* nonnull %12)
  %14 = add nuw nsw i64 %11, 1
  %15 = load i32, i32* %2, align 4, !tbaa !9
  %16 = sext i32 %15 to i64
  %17 = icmp slt i64 %11, %16
  br i1 %17, label %10, label %8, !llvm.loop !13

18:                                               ; preds = %8, %59
  %19 = phi i64 [ %62, %59 ], [ 1, %8 ]
  %20 = getelementptr inbounds [10000 x i32], [10000 x i32]* %1, i64 0, i64 %19
  %21 = load i32, i32* %20, align 4, !tbaa !9
  %22 = add i32 %21, -1
  %23 = icmp ult i32 %22, 2
  br i1 %23, label %59, label %24

24:                                               ; preds = %18
  %25 = icmp slt i32 %21, 3
  br i1 %25, label %59, label %26

26:                                               ; preds = %24
  %27 = add i32 %21, -2
  %28 = add i32 %21, -3
  %29 = and i32 %27, 7
  %30 = icmp ult i32 %28, 7
  br i1 %30, label %47, label %31

31:                                               ; preds = %26
  %32 = and i32 %27, -8
  br label %33

33:                                               ; preds = %33, %31
  %34 = phi i32 [ 1, %31 ], [ %44, %33 ]
  %35 = phi i32 [ 1, %31 ], [ %43, %33 ]
  %36 = phi i32 [ %32, %31 ], [ %45, %33 ]
  %37 = add nsw i32 %35, %34
  %38 = add nsw i32 %34, %37
  %39 = add nsw i32 %37, %38
  %40 = add nsw i32 %38, %39
  %41 = add nsw i32 %39, %40
  %42 = add nsw i32 %40, %41
  %43 = add nsw i32 %41, %42
  %44 = add nsw i32 %42, %43
  %45 = add i32 %36, -8
  %46 = icmp eq i32 %45, 0
  br i1 %46, label %47, label %33, !llvm.loop !5

47:                                               ; preds = %33, %26
  %48 = phi i32 [ undef, %26 ], [ %44, %33 ]
  %49 = phi i32 [ 1, %26 ], [ %44, %33 ]
  %50 = phi i32 [ 1, %26 ], [ %43, %33 ]
  %51 = icmp eq i32 %29, 0
  br i1 %51, label %59, label %52

52:                                               ; preds = %47, %52
  %53 = phi i32 [ %56, %52 ], [ %49, %47 ]
  %54 = phi i32 [ %53, %52 ], [ %50, %47 ]
  %55 = phi i32 [ %57, %52 ], [ %29, %47 ]
  %56 = add nsw i32 %54, %53
  %57 = add i32 %55, -1
  %58 = icmp eq i32 %57, 0
  br i1 %58, label %59, label %52, !llvm.loop !14

59:                                               ; preds = %47, %52, %18, %24
  %60 = phi i32 [ 1, %18 ], [ undef, %24 ], [ %48, %47 ], [ %56, %52 ]
  %61 = call i32 (i8*, ...) @printf(i8* nonnull dereferenceable(1) getelementptr inbounds ([4 x i8], [4 x i8]* @.str.1, i64 0, i64 0), i32 %60)
  %62 = add nuw nsw i64 %19, 1
  %63 = load i32, i32* %2, align 4, !tbaa !9
  %64 = sext i32 %63 to i64
  %65 = icmp slt i64 %19, %64
  br i1 %65, label %18, label %66, !llvm.loop !15

66:                                               ; preds = %59, %0, %8
  call void @llvm.lifetime.end.p0i8(i64 4, i8* nonnull %4) #4
  call void @llvm.lifetime.end.p0i8(i64 40000, i8* nonnull %3) #4
  ret i32 0
}

; Function Attrs: nofree nounwind
declare noundef i32 @__isoc99_scanf(i8* nocapture noundef readonly, ...) local_unnamed_addr #3

; Function Attrs: nofree nounwind
declare noundef i32 @printf(i8* nocapture noundef readonly, ...) local_unnamed_addr #3


!llvm.module.flags = !{!0, !1, !2, !3}
!llvm.ident = !{!4}

!0 = !{i32 1, !"wchar_size", i32 4}
!1 = !{i32 7, !"PIC Level", i32 2}
!2 = !{i32 7, !"PIE Level", i32 2}
!3 = !{i32 7, !"uwtable", i32 1}
!4 = !{!"clang version 13.0.0"}
!5 = distinct !{!5, !6}
!6 = !{!"llvm.loop.mustprogress"}
!7 = distinct !{!7, !8}
!8 = !{!"llvm.loop.unroll.disable"}
!9 = !{!10, !10, i64 0}
!10 = !{!"int", !11, i64 0}
!11 = !{!"omnipotent char", !12, i64 0}
!12 = !{!"Simple C/C++ TBAA"}
!13 = distinct !{!13, !6}
!14 = distinct !{!14, !8}
!15 = distinct !{!15, !6}
